target datalayout = "e-m:e-p270:32:32-p271:32:32-p272:64:64-i64:64-i128:128-f80:128-n8:16:32:64-S128"
target triple = "x86_64-pc-linux-gnu"

%"class.std::initializer_list" = type { ptr, i64 }

@_ZZN8simdjson8internalL37get_available_implementation_pointersEvE33available_implementation_pointers = internal global %"class.std::initializer_list" zeroinitializer, align 8
@_ZGVZN8simdjson8internalL37get_available_implementation_pointersEvE33available_implementation_pointers = internal global i64 0, align 8
@_ZGRZN8simdjson8internalL37get_available_implementation_pointersEvE33available_implementation_pointers_ = internal global [4 x ptr] zeroinitializer, align 8

; Function Attrs: mustprogress nounwind uwtable
define linkonce_odr dso_local noundef i64 @_ZNKSt16initializer_listIPKN8simdjson14implementationEE4sizeEv(ptr noundef nonnull align 8 dereferenceable(16) %0) #2 comdat align 2 {
  %2 = alloca ptr, align 8
  store ptr %0, ptr %2, align 8, !tbaa !73
  %3 = load ptr, ptr %2, align 8
  %4 = getelementptr inbounds nuw %"class.std::initializer_list", ptr %3, i32 0, i32 1
  %5 = load i64, ptr %4, align 8, !tbaa !72
  ret i64 %5
}

; Function Attrs: mustprogress nounwind uwtable
define linkonce_odr dso_local noundef ptr @_ZNKSt16initializer_listIPKN8simdjson14implementationEE5beginEv(ptr noundef nonnull align 8 dereferenceable(16) %0) #2 comdat align 2 {
  %2 = alloca ptr, align 8
  store ptr %0, ptr %2, align 8, !tbaa !73
  %3 = load ptr, ptr %2, align 8
  %4 = getelementptr inbounds nuw %"class.std::initializer_list", ptr %3, i32 0, i32 0
  %5 = load ptr, ptr %4, align 8, !tbaa !69
  ret ptr %5
}

; Function Attrs: noinline noreturn nounwind uwtable
define linkonce_odr hidden void @__clang_call_terminate(ptr noundef %0) #5 comdat {
  %2 = call ptr @__cxa_begin_catch(ptr %0) #10
  call void @_ZSt9terminatev() #56
  unreachable
}

; Function Attrs: mustprogress nounwind uwtable
define linkonce_odr dso_local noundef ptr @_ZNKSt16initializer_listIPKN8simdjson14implementationEE3endEv(ptr noundef nonnull align 8 dereferenceable(16) %0) #2 comdat align 2 {
  %2 = alloca ptr, align 8
  store ptr %0, ptr %2, align 8, !tbaa !73
  %3 = load ptr, ptr %2, align 8
  %4 = call noundef ptr @_ZNKSt16initializer_listIPKN8simdjson14implementationEE5beginEv(ptr noundef nonnull align 8 dereferenceable(16) %3) #10
  %5 = call noundef i64 @_ZNKSt16initializer_listIPKN8simdjson14implementationEE4sizeEv(ptr noundef nonnull align 8 dereferenceable(16) %3) #10
  %6 = getelementptr inbounds nuw ptr, ptr %4, i64 %5
  ret ptr %6
}

; Function Attrs: mustprogress uwtable
define internal noundef nonnull align 8 dereferenceable(16) ptr @_ZN8simdjson8internalL37get_available_implementation_pointersEv() #0 personality ptr @__gxx_personality_v0 {
  %1 = alloca ptr, align 8
  %2 = alloca i32, align 4
  %3 = load atomic i8, ptr @_ZGVZN8simdjson8internalL37get_available_implementation_pointersEvE33available_implementation_pointers acquire, align 8
  %4 = icmp eq i8 %3, 0
  br i1 %4, label %5, label %18, !prof !64

5:                                                ; preds = %0
  %6 = call i32 @__cxa_guard_acquire(ptr @_ZGVZN8simdjson8internalL37get_available_implementation_pointersEvE33available_implementation_pointers) #10
  %7 = icmp ne i32 %6, 0
  br i1 %7, label %8, label %18

8:                                                ; preds = %5
  %9 = invoke noundef ptr @_ZN8simdjson8internalL21get_icelake_singletonEv()
          to label %10 unwind label %19

10:                                               ; preds = %8
  store ptr %9, ptr @_ZGRZN8simdjson8internalL37get_available_implementation_pointersEvE33available_implementation_pointers_, align 8, !tbaa !60
  %11 = invoke noundef ptr @_ZN8simdjson8internalL21get_haswell_singletonEv()
          to label %12 unwind label %19

12:                                               ; preds = %10
  store ptr %11, ptr getelementptr inbounds (ptr, ptr @_ZGRZN8simdjson8internalL37get_available_implementation_pointersEvE33available_implementation_pointers_, i64 1), align 8, !tbaa !60
  %13 = invoke noundef ptr @_ZN8simdjson8internalL22get_westmere_singletonEv()
          to label %14 unwind label %19

14:                                               ; preds = %12
  store ptr %13, ptr getelementptr inbounds (ptr, ptr @_ZGRZN8simdjson8internalL37get_available_implementation_pointersEvE33available_implementation_pointers_, i64 2), align 8, !tbaa !60
  %15 = invoke noundef ptr @_ZN8simdjson8internalL22get_fallback_singletonEv()
          to label %16 unwind label %19

16:                                               ; preds = %14
  store ptr %15, ptr getelementptr inbounds (ptr, ptr @_ZGRZN8simdjson8internalL37get_available_implementation_pointersEvE33available_implementation_pointers_, i64 3), align 8, !tbaa !60
  store ptr @_ZGRZN8simdjson8internalL37get_available_implementation_pointersEvE33available_implementation_pointers_, ptr @_ZZN8simdjson8internalL37get_available_implementation_pointersEvE33available_implementation_pointers, align 8, !tbaa !69
  store i64 4, ptr getelementptr inbounds nuw (%"class.std::initializer_list", ptr @_ZZN8simdjson8internalL37get_available_implementation_pointersEvE33available_implementation_pointers, i32 0, i32 1), align 8, !tbaa !72
  %17 = call ptr @llvm.invariant.start.p0(i64 16, ptr @_ZZN8simdjson8internalL37get_available_implementation_pointersEvE33available_implementation_pointers)
  call void @__cxa_guard_release(ptr @_ZGVZN8simdjson8internalL37get_available_implementation_pointersEvE33available_implementation_pointers) #10
  br label %18

18:                                               ; preds = %16, %5, %0
  ret ptr @_ZZN8simdjson8internalL37get_available_implementation_pointersEvE33available_implementation_pointers

19:                                               ; preds = %14, %12, %10, %8
  %20 = landingpad { ptr, i32 }
          cleanup
  %21 = extractvalue { ptr, i32 } %20, 0
  store ptr %21, ptr %1, align 8
  %22 = extractvalue { ptr, i32 } %20, 1
  store i32 %22, ptr %2, align 4
  call void @__cxa_guard_abort(ptr @_ZGVZN8simdjson8internalL37get_available_implementation_pointersEvE33available_implementation_pointers) #10
  br label %23

23:                                               ; preds = %19
  %24 = load ptr, ptr %1, align 8
  %25 = load i32, ptr %2, align 4
  %26 = insertvalue { ptr, i32 } poison, ptr %24, 0
  %27 = insertvalue { ptr, i32 } %26, i32 %25, 1
  resume { ptr, i32 } %27
}

; Function Attrs: mustprogress nounwind uwtable
define dso_local noundef ptr @_ZNK8simdjson8internal29available_implementation_list3endEv(ptr noundef nonnull align 1 dereferenceable(1) %0) #2 align 2 personality ptr @__gxx_personality_v0 {
  %2 = alloca ptr, align 8
  store ptr %0, ptr %2, align 8, !tbaa !67
  %3 = invoke noundef nonnull align 8 dereferenceable(16) ptr @_ZN8simdjson8internalL37get_available_implementation_pointersEv()
          to label %4 unwind label %6

4:                                                ; preds = %1
  %5 = call noundef ptr @_ZNKSt16initializer_listIPKN8simdjson14implementationEE3endEv(ptr noundef nonnull align 8 dereferenceable(16) %3) #10
  ret ptr %5

6:                                                ; preds = %1
  %7 = landingpad { ptr, i32 }
          catch ptr null
  %8 = extractvalue { ptr, i32 } %7, 0
  call void @__clang_call_terminate(ptr %8) #56
  unreachable
}